Certificate:
    Data:
        Version: 3 (0x2)
        Serial Number: 506955 (0x7bc4b)
        Signature Algorithm: sha256WithRSAEncryption
        Issuer: CN=web-platform-tests
        Validity
            Not Before: May 12 00:57:43 2024 GMT
            Not After : May 12 00:57:43 2025 GMT
        Subject: CN=web-platform.test
        Subject Public Key Info:
            Public Key Algorithm: rsaEncryption
                RSA Public-Key: (2048 bit)
                Modulus:
                    00:bb:1b:38:d6:ac:00:17:fe:23:ce:ad:cc:6b:b3:
                    19:cf:4d:b1:d3:f9:3e:c7:c1:05:42:03:f2:e1:f8:
                    89:98:f4:1e:06:43:21:e1:8a:f3:df:cd:ca:ee:a1:
                    5e:e8:78:22:da:f3:ce:d1:95:91:6e:b1:12:fe:d9:
                    2c:63:d9:e3:4c:50:d6:b4:05:c8:1e:35:03:bb:48:
                    ca:2d:b0:d5:2c:39:26:95:34:a8:9f:04:d0:a9:2f:
                    36:5c:9f:af:1b:e9:13:59:95:ab:55:be:44:c0:77:
                    82:66:b4:4e:23:7c:db:76:a5:af:c6:3c:37:0e:47:
                    96:e1:29:11:b3:04:3a:e7:dd:d1:95:3d:1b:9f:ce:
                    36:8d:99:90:57:ce:a4:87:cb:31:64:e4:ad:46:9e:
                    e5:89:6f:e3:b6:5c:6c:fa:05:9e:60:63:21:69:68:
                    35:8d:f0:e3:cc:fb:39:79:f8:54:14:98:f6:a2:2d:
                    9c:f8:a7:42:ea:1e:be:56:36:7c:ed:d2:c5:73:5b:
                    fa:da:7c:ef:d5:bb:7c:e0:15:09:8e:70:07:0a:da:
                    a2:95:64:4c:49:9a:39:3b:50:07:4a:bc:1b:fd:62:
                    89:0d:6f:26:5c:24:d3:15:00:79:3e:3b:65:2d:ce:
                    f6:8b:43:15:90:4c:75:89:b6:d0:c0:7f:35:a6:1c:
                    e1:29
                Exponent: 65537 (0x10001)
        X509v3 extensions:
            X509v3 Basic Constraints: 
                CA:FALSE
            X509v3 Subject Key Identifier: 
                3C:15:76:38:1A:21:57:D0:62:A0:03:DF:6C:21:AB:06:1C:CC:04:E9
            X509v3 Authority Key Identifier: 
                keyid:7E:38:A5:7C:26:55:B9:19:5B:B5:65:FD:A4:66:D9:D3:EF:A3:A0:E2

            X509v3 Key Usage: 
                Digital Signature, Non Repudiation, Key Encipherment
            X509v3 Extended Key Usage: 
                TLS Web Server Authentication
            X509v3 Subject Alternative Name: 
                DNS:web-platform.test, DNS:www.web-platform.test, DNS:not-web-platform.test, DNS:www1.web-platform.test, DNS:www2.web-platform.test, DNS:www.not-web-platform.test, DNS:www.www.web-platform.test, DNS:www1.www.web-platform.test, DNS:www2.www.web-platform.test, DNS:www1.not-web-platform.test, DNS:www.www1.web-platform.test, DNS:www2.not-web-platform.test, DNS:www.www2.web-platform.test, DNS:www1.www1.web-platform.test, DNS:www1.www2.web-platform.test, DNS:www2.www2.web-platform.test, DNS:www2.www1.web-platform.test, DNS:www.www.not-web-platform.test, DNS:www1.www.not-web-platform.test, DNS:www2.www.not-web-platform.test, DNS:www.www2.not-web-platform.test, DNS:www.www1.not-web-platform.test, DNS:xn--lve-6lad.web-platform.test, DNS:www1.www2.not-web-platform.test, DNS:www1.www1.not-web-platform.test, DNS:www2.www1.not-web-platform.test, DNS:www2.www2.not-web-platform.test, DNS:www.xn--lve-6lad.web-platform.test, DNS:xn--lve-6lad.www.web-platform.test, DNS:xn--lve-6lad.not-web-platform.test, DNS:xn--lve-6lad.www1.web-platform.test, DNS:www2.xn--lve-6lad.web-platform.test, DNS:www1.xn--lve-6lad.web-platform.test, DNS:xn--lve-6lad.www2.web-platform.test, DNS:www.xn--lve-6lad.not-web-platform.test, DNS:xn--lve-6lad.www.not-web-platform.test, DNS:xn--lve-6lad.www1.not-web-platform.test, DNS:xn--lve-6lad.www2.not-web-platform.test, DNS:www2.xn--lve-6lad.not-web-platform.test, DNS:www1.xn--lve-6lad.not-web-platform.test, DNS:xn--n8j6ds53lwwkrqhv28a.web-platform.test, DNS:xn--lve-6lad.xn--lve-6lad.web-platform.test, DNS:xn--n8j6ds53lwwkrqhv28a.www.web-platform.test, DNS:xn--n8j6ds53lwwkrqhv28a.not-web-platform.test, DNS:www.xn--n8j6ds53lwwkrqhv28a.web-platform.test, DNS:xn--n8j6ds53lwwkrqhv28a.www1.web-platform.test, DNS:www2.xn--n8j6ds53lwwkrqhv28a.web-platform.test, DNS:www1.xn--n8j6ds53lwwkrqhv28a.web-platform.test, DNS:xn--n8j6ds53lwwkrqhv28a.www2.web-platform.test, DNS:xn--lve-6lad.xn--lve-6lad.not-web-platform.test, DNS:xn--n8j6ds53lwwkrqhv28a.www.not-web-platform.test, DNS:www.xn--n8j6ds53lwwkrqhv28a.not-web-platform.test, DNS:www1.xn--n8j6ds53lwwkrqhv28a.not-web-platform.test, DNS:xn--n8j6ds53lwwkrqhv28a.www1.not-web-platform.test, DNS:xn--n8j6ds53lwwkrqhv28a.www2.not-web-platform.test, DNS:www2.xn--n8j6ds53lwwkrqhv28a.not-web-platform.test, DNS:xn--n8j6ds53lwwkrqhv28a.xn--lve-6lad.web-platform.test, DNS:xn--lve-6lad.xn--n8j6ds53lwwkrqhv28a.web-platform.test, DNS:xn--n8j6ds53lwwkrqhv28a.xn--lve-6lad.not-web-platform.test, DNS:xn--lve-6lad.xn--n8j6ds53lwwkrqhv28a.not-web-platform.test, DNS:xn--n8j6ds53lwwkrqhv28a.xn--n8j6ds53lwwkrqhv28a.web-platform.test, DNS:xn--n8j6ds53lwwkrqhv28a.xn--n8j6ds53lwwkrqhv28a.not-web-platform.test
    Signature Algorithm: sha256WithRSAEncryption
         9d:ad:74:d9:6b:e7:8e:2c:40:28:11:9f:84:a0:2a:b5:35:4b:
         9b:0d:05:a0:31:37:93:72:94:c4:49:df:1b:c7:57:da:23:a6:
         36:b0:71:57:19:65:d5:ba:59:ea:b6:e9:a5:fa:d3:1b:b8:75:
         ba:ef:a0:dc:4a:11:f8:1f:8c:24:33:ea:e1:75:d0:8c:e7:8d:
         e1:f2:94:7a:80:dc:3f:f7:33:42:46:1c:ee:ef:9b:54:ef:c9:
         83:a2:e0:d5:77:73:58:46:75:ad:ff:a2:81:98:ec:f5:3e:6c:
         89:b9:24:08:e4:91:01:c8:1e:55:bd:66:9f:23:19:66:f0:ff:
         4d:90:85:43:93:4e:7e:38:cd:8c:6e:55:57:0e:4f:9e:09:c8:
         46:e0:fe:7a:a8:4b:f6:ce:d3:8e:e6:51:56:3e:e3:e2:fb:25:
         8e:72:b9:ba:9d:05:2d:cb:e6:c1:37:f0:21:5d:83:29:2c:88:
         75:cd:b9:a3:6f:41:9c:e2:0b:1d:b8:39:59:82:38:a5:a5:8c:
         7f:4d:10:28:32:42:22:e1:6f:12:76:98:87:6d:0d:c8:24:0f:
         59:38:37:d1:21:a5:e4:98:05:5b:0f:6e:ea:98:05:10:c4:95:
         e3:35:16:fa:b5:f8:e0:63:c5:d6:41:21:98:50:37:f3:95:ba:
         5d:32:06:1d
-----BEGIN CERTIFICATE-----
MIIMsjCCC5qgAwIBAgIDB7xLMA0GCSqGSIb3DQEBCwUAMB0xGzAZBgNVBAMMEndl
Yi1wbGF0Zm9ybS10ZXN0czAeFw0yNDA1MTIwMDU3NDNaFw0yNTA1MTIwMDU3NDNa
MBwxGjAYBgNVBAMMEXdlYi1wbGF0Zm9ybS50ZXN0MIIBIjANBgkqhkiG9w0BAQEF
AAOCAQ8AMIIBCgKCAQEAuxs41qwAF/4jzq3Ma7MZz02x0/k+x8EFQgPy4fiJmPQe
BkMh4Yrz383K7qFe6Hgi2vPO0ZWRbrES/tksY9njTFDWtAXIHjUDu0jKLbDVLDkm
lTSonwTQqS82XJ+vG+kTWZWrVb5EwHeCZrROI3zbdqWvxjw3DkeW4SkRswQ6593R
lT0bn842jZmQV86kh8sxZOStRp7liW/jtlxs+gWeYGMhaWg1jfDjzPs5efhUFJj2
oi2c+KdC6h6+VjZ87dLFc1v62nzv1bt84BUJjnAHCtqilWRMSZo5O1AHSrwb/WKJ
DW8mXCTTFQB5PjtlLc72i0MVkEx1ibbQwH81phzhKQIDAQABo4IJ+jCCCfYwCQYD
VR0TBAIwADAdBgNVHQ4EFgQUPBV2OBohV9BioAPfbCGrBhzMBOkwHwYDVR0jBBgw
FoAUfjilfCZVuRlbtWX9pGbZ0++joOIwCwYDVR0PBAQDAgXgMBMGA1UdJQQMMAoG
CCsGAQUFBwMBMIIJhQYDVR0RBIIJfDCCCXiCEXdlYi1wbGF0Zm9ybS50ZXN0ghV3
d3cud2ViLXBsYXRmb3JtLnRlc3SCFW5vdC13ZWItcGxhdGZvcm0udGVzdIIWd3d3
MS53ZWItcGxhdGZvcm0udGVzdIIWd3d3Mi53ZWItcGxhdGZvcm0udGVzdIIZd3d3
Lm5vdC13ZWItcGxhdGZvcm0udGVzdIIZd3d3Lnd3dy53ZWItcGxhdGZvcm0udGVz
dIIad3d3MS53d3cud2ViLXBsYXRmb3JtLnRlc3SCGnd3dzIud3d3LndlYi1wbGF0
Zm9ybS50ZXN0ghp3d3cxLm5vdC13ZWItcGxhdGZvcm0udGVzdIIad3d3Lnd3dzEu
d2ViLXBsYXRmb3JtLnRlc3SCGnd3dzIubm90LXdlYi1wbGF0Zm9ybS50ZXN0ghp3
d3cud3d3Mi53ZWItcGxhdGZvcm0udGVzdIIbd3d3MS53d3cxLndlYi1wbGF0Zm9y
bS50ZXN0ght3d3cxLnd3dzIud2ViLXBsYXRmb3JtLnRlc3SCG3d3dzIud3d3Mi53
ZWItcGxhdGZvcm0udGVzdIIbd3d3Mi53d3cxLndlYi1wbGF0Zm9ybS50ZXN0gh13
d3cud3d3Lm5vdC13ZWItcGxhdGZvcm0udGVzdIIed3d3MS53d3cubm90LXdlYi1w
bGF0Zm9ybS50ZXN0gh53d3cyLnd3dy5ub3Qtd2ViLXBsYXRmb3JtLnRlc3SCHnd3
dy53d3cyLm5vdC13ZWItcGxhdGZvcm0udGVzdIIed3d3Lnd3dzEubm90LXdlYi1w
bGF0Zm9ybS50ZXN0gh54bi0tbHZlLTZsYWQud2ViLXBsYXRmb3JtLnRlc3SCH3d3
dzEud3d3Mi5ub3Qtd2ViLXBsYXRmb3JtLnRlc3SCH3d3dzEud3d3MS5ub3Qtd2Vi
LXBsYXRmb3JtLnRlc3SCH3d3dzIud3d3MS5ub3Qtd2ViLXBsYXRmb3JtLnRlc3SC
H3d3dzIud3d3Mi5ub3Qtd2ViLXBsYXRmb3JtLnRlc3SCInd3dy54bi0tbHZlLTZs
YWQud2ViLXBsYXRmb3JtLnRlc3SCInhuLS1sdmUtNmxhZC53d3cud2ViLXBsYXRm
b3JtLnRlc3SCInhuLS1sdmUtNmxhZC5ub3Qtd2ViLXBsYXRmb3JtLnRlc3SCI3hu
LS1sdmUtNmxhZC53d3cxLndlYi1wbGF0Zm9ybS50ZXN0giN3d3cyLnhuLS1sdmUt
NmxhZC53ZWItcGxhdGZvcm0udGVzdIIjd3d3MS54bi0tbHZlLTZsYWQud2ViLXBs
YXRmb3JtLnRlc3SCI3huLS1sdmUtNmxhZC53d3cyLndlYi1wbGF0Zm9ybS50ZXN0
giZ3d3cueG4tLWx2ZS02bGFkLm5vdC13ZWItcGxhdGZvcm0udGVzdIImeG4tLWx2
ZS02bGFkLnd3dy5ub3Qtd2ViLXBsYXRmb3JtLnRlc3SCJ3huLS1sdmUtNmxhZC53
d3cxLm5vdC13ZWItcGxhdGZvcm0udGVzdIIneG4tLWx2ZS02bGFkLnd3dzIubm90
LXdlYi1wbGF0Zm9ybS50ZXN0gid3d3cyLnhuLS1sdmUtNmxhZC5ub3Qtd2ViLXBs
YXRmb3JtLnRlc3SCJ3d3dzEueG4tLWx2ZS02bGFkLm5vdC13ZWItcGxhdGZvcm0u
dGVzdIIpeG4tLW44ajZkczUzbHd3a3JxaHYyOGEud2ViLXBsYXRmb3JtLnRlc3SC
K3huLS1sdmUtNmxhZC54bi0tbHZlLTZsYWQud2ViLXBsYXRmb3JtLnRlc3SCLXhu
LS1uOGo2ZHM1M2x3d2tycWh2MjhhLnd3dy53ZWItcGxhdGZvcm0udGVzdIIteG4t
LW44ajZkczUzbHd3a3JxaHYyOGEubm90LXdlYi1wbGF0Zm9ybS50ZXN0gi13d3cu
eG4tLW44ajZkczUzbHd3a3JxaHYyOGEud2ViLXBsYXRmb3JtLnRlc3SCLnhuLS1u
OGo2ZHM1M2x3d2tycWh2MjhhLnd3dzEud2ViLXBsYXRmb3JtLnRlc3SCLnd3dzIu
eG4tLW44ajZkczUzbHd3a3JxaHYyOGEud2ViLXBsYXRmb3JtLnRlc3SCLnd3dzEu
eG4tLW44ajZkczUzbHd3a3JxaHYyOGEud2ViLXBsYXRmb3JtLnRlc3SCLnhuLS1u
OGo2ZHM1M2x3d2tycWh2MjhhLnd3dzIud2ViLXBsYXRmb3JtLnRlc3SCL3huLS1s
dmUtNmxhZC54bi0tbHZlLTZsYWQubm90LXdlYi1wbGF0Zm9ybS50ZXN0gjF4bi0t
bjhqNmRzNTNsd3drcnFodjI4YS53d3cubm90LXdlYi1wbGF0Zm9ybS50ZXN0gjF3
d3cueG4tLW44ajZkczUzbHd3a3JxaHYyOGEubm90LXdlYi1wbGF0Zm9ybS50ZXN0
gjJ3d3cxLnhuLS1uOGo2ZHM1M2x3d2tycWh2MjhhLm5vdC13ZWItcGxhdGZvcm0u
dGVzdIIyeG4tLW44ajZkczUzbHd3a3JxaHYyOGEud3d3MS5ub3Qtd2ViLXBsYXRm
b3JtLnRlc3SCMnhuLS1uOGo2ZHM1M2x3d2tycWh2MjhhLnd3dzIubm90LXdlYi1w
bGF0Zm9ybS50ZXN0gjJ3d3cyLnhuLS1uOGo2ZHM1M2x3d2tycWh2MjhhLm5vdC13
ZWItcGxhdGZvcm0udGVzdII2eG4tLW44ajZkczUzbHd3a3JxaHYyOGEueG4tLWx2
ZS02bGFkLndlYi1wbGF0Zm9ybS50ZXN0gjZ4bi0tbHZlLTZsYWQueG4tLW44ajZk
czUzbHd3a3JxaHYyOGEud2ViLXBsYXRmb3JtLnRlc3SCOnhuLS1uOGo2ZHM1M2x3
d2tycWh2MjhhLnhuLS1sdmUtNmxhZC5ub3Qtd2ViLXBsYXRmb3JtLnRlc3SCOnhu
LS1sdmUtNmxhZC54bi0tbjhqNmRzNTNsd3drcnFodjI4YS5ub3Qtd2ViLXBsYXRm
b3JtLnRlc3SCQXhuLS1uOGo2ZHM1M2x3d2tycWh2MjhhLnhuLS1uOGo2ZHM1M2x3
d2tycWh2MjhhLndlYi1wbGF0Zm9ybS50ZXN0gkV4bi0tbjhqNmRzNTNsd3drcnFo
djI4YS54bi0tbjhqNmRzNTNsd3drcnFodjI4YS5ub3Qtd2ViLXBsYXRmb3JtLnRl
c3QwDQYJKoZIhvcNAQELBQADggEBAJ2tdNlr544sQCgRn4SgKrU1S5sNBaAxN5Ny
lMRJ3xvHV9ojpjawcVcZZdW6Weq26aX60xu4dbrvoNxKEfgfjCQz6uF10IznjeHy
lHqA3D/3M0JGHO7vm1TvyYOi4NV3c1hGda3/ooGY7PU+bIm5JAjkkQHIHlW9Zp8j
GWbw/02QhUOTTn44zYxuVVcOT54JyEbg/nqoS/bO047mUVY+4+L7JY5yubqdBS3L
5sE38CFdgyksiHXNuaNvQZziCx24OVmCOKWljH9NECgyQiLhbxJ2mIdtDcgkD1k4
N9EhpeSYBVsPbuqYBRDEleM1Fvq1+OBjxdZBIZhQN/OVul0yBh0=
-----END CERTIFICATE-----
